target datalayout = "e-m:e-p270:32:32-p271:32:32-p272:64:64-i64:64-i128:128-f80:128-n8:16:32:64-S128"
target triple = "x86_64-pc-linux-gnu"

%struct.SnapBuild = type { i32, ptr, i32, i32, i64, i64, i32, i8, i8, ptr, i64, ptr, i32, %struct.anon, %struct.anon.0 }
%struct.anon = type { i64, i64, i8, ptr }
%struct.anon.0 = type { i64, ptr }

@CurrentMemoryContext = external global ptr, align 8
@.str = private unnamed_addr constant [25 x i8] c"snapshot builder context\00", align 1

; Function Attrs: inlinehint nounwind uwtable
define internal ptr @MemoryContextSwitchTo(ptr noundef %0) #3 {
  %2 = alloca ptr, align 8
  %3 = alloca ptr, align 8
  store ptr %0, ptr %2, align 8
  call void @llvm.lifetime.start.p0(i64 8, ptr %3) #9
  %4 = load ptr, ptr @CurrentMemoryContext, align 8
  store ptr %4, ptr %3, align 8
  %5 = load ptr, ptr %2, align 8
  store ptr %5, ptr @CurrentMemoryContext, align 8
  %6 = load ptr, ptr %3, align 8
  call void @llvm.lifetime.end.p0(i64 8, ptr %3) #9
  ret ptr %6
}

; Function Attrs: nounwind uwtable
define dso_local ptr @AllocateSnapshotBuilder(ptr noundef %0, i32 noundef %1, i64 noundef %2, i1 noundef zeroext %3, i1 noundef zeroext %4, i64 noundef %5) #0 {
  %7 = alloca ptr, align 8
  %8 = alloca i32, align 4
  %9 = alloca i64, align 8
  %10 = alloca i8, align 1
  %11 = alloca i8, align 1
  %12 = alloca i64, align 8
  %13 = alloca ptr, align 8
  %14 = alloca ptr, align 8
  %15 = alloca ptr, align 8
  %16 = alloca i32, align 4
  store ptr %0, ptr %7, align 8
  store i32 %1, ptr %8, align 4
  store i64 %2, ptr %9, align 8
  %17 = zext i1 %3 to i8
  store i8 %17, ptr %10, align 1
  %18 = zext i1 %4 to i8
  store i8 %18, ptr %11, align 1
  store i64 %5, ptr %12, align 8
  call void @llvm.lifetime.start.p0(i64 8, ptr %13) #9
  call void @llvm.lifetime.start.p0(i64 8, ptr %14) #9
  call void @llvm.lifetime.start.p0(i64 8, ptr %15) #9
  br label %19

19:                                               ; preds = %6
  br label %20

20:                                               ; preds = %19
  br label %21

21:                                               ; preds = %20
  store i32 1, ptr %16, align 4
  %22 = load ptr, ptr @CurrentMemoryContext, align 8
  %23 = call ptr @AllocSetContextCreateInternal(ptr noundef %22, ptr noundef @.str, i64 noundef 0, i64 noundef 8192, i64 noundef 8388608)
  store ptr %23, ptr %13, align 8
  %24 = load ptr, ptr %13, align 8
  %25 = call ptr @MemoryContextSwitchTo(ptr noundef %24)
  store ptr %25, ptr %14, align 8
  %26 = call ptr @palloc0(i64 noundef 128)
  store ptr %26, ptr %15, align 8
  %27 = load ptr, ptr %15, align 8
  %28 = getelementptr inbounds nuw %struct.SnapBuild, ptr %27, i32 0, i32 0
  store i32 -1, ptr %28, align 8
  %29 = load ptr, ptr %13, align 8
  %30 = load ptr, ptr %15, align 8
  %31 = getelementptr inbounds nuw %struct.SnapBuild, ptr %30, i32 0, i32 1
  store ptr %29, ptr %31, align 8
  %32 = load ptr, ptr %7, align 8
  %33 = load ptr, ptr %15, align 8
  %34 = getelementptr inbounds nuw %struct.SnapBuild, ptr %33, i32 0, i32 11
  store ptr %32, ptr %34, align 8
  %35 = load ptr, ptr %15, align 8
  %36 = getelementptr inbounds nuw %struct.SnapBuild, ptr %35, i32 0, i32 13
  %37 = getelementptr inbounds nuw %struct.anon, ptr %36, i32 0, i32 0
  store i64 0, ptr %37, align 8
  %38 = load ptr, ptr %15, align 8
  %39 = getelementptr inbounds nuw %struct.SnapBuild, ptr %38, i32 0, i32 13
  %40 = getelementptr inbounds nuw %struct.anon, ptr %39, i32 0, i32 1
  store i64 128, ptr %40, align 8
  %41 = load ptr, ptr %15, align 8
  %42 = getelementptr inbounds nuw %struct.SnapBuild, ptr %41, i32 0, i32 13
  %43 = getelementptr inbounds nuw %struct.anon, ptr %42, i32 0, i32 1
  %44 = load i64, ptr %43, align 8
  %45 = mul i64 %44, 4
  %46 = call ptr @palloc0(i64 noundef %45)
  %47 = load ptr, ptr %15, align 8
  %48 = getelementptr inbounds nuw %struct.SnapBuild, ptr %47, i32 0, i32 13
  %49 = getelementptr inbounds nuw %struct.anon, ptr %48, i32 0, i32 3
  store ptr %46, ptr %49, align 8
  %50 = load ptr, ptr %15, align 8
  %51 = getelementptr inbounds nuw %struct.SnapBuild, ptr %50, i32 0, i32 13
  %52 = getelementptr inbounds nuw %struct.anon, ptr %51, i32 0, i32 2
  store i8 1, ptr %52, align 8
  %53 = load ptr, ptr %15, align 8
  %54 = getelementptr inbounds nuw %struct.SnapBuild, ptr %53, i32 0, i32 14
  %55 = getelementptr inbounds nuw %struct.anon.0, ptr %54, i32 0, i32 0
  store i64 0, ptr %55, align 8
  %56 = load ptr, ptr %15, align 8
  %57 = getelementptr inbounds nuw %struct.SnapBuild, ptr %56, i32 0, i32 14
  %58 = getelementptr inbounds nuw %struct.anon.0, ptr %57, i32 0, i32 1
  store ptr null, ptr %58, align 8
  %59 = load i32, ptr %8, align 4
  %60 = load ptr, ptr %15, align 8
  %61 = getelementptr inbounds nuw %struct.SnapBuild, ptr %60, i32 0, i32 6
  store i32 %59, ptr %61, align 8
  %62 = load i64, ptr %9, align 8
  %63 = load ptr, ptr %15, align 8
  %64 = getelementptr inbounds nuw %struct.SnapBuild, ptr %63, i32 0, i32 4
  store i64 %62, ptr %64, align 8
  %65 = load i8, ptr %11, align 1, !range !4, !noundef !5
  %66 = trunc i8 %65 to i1
  %67 = load ptr, ptr %15, align 8
  %68 = getelementptr inbounds nuw %struct.SnapBuild, ptr %67, i32 0, i32 8
  %69 = zext i1 %66 to i8
  store i8 %69, ptr %68, align 1
  %70 = load i8, ptr %10, align 1, !range !4, !noundef !5
  %71 = trunc i8 %70 to i1
  %72 = load ptr, ptr %15, align 8
  %73 = getelementptr inbounds nuw %struct.SnapBuild, ptr %72, i32 0, i32 7
  %74 = zext i1 %71 to i8
  store i8 %74, ptr %73, align 4
  %75 = load i64, ptr %12, align 8
  %76 = load ptr, ptr %15, align 8
  %77 = getelementptr inbounds nuw %struct.SnapBuild, ptr %76, i32 0, i32 5
  store i64 %75, ptr %77, align 8
  %78 = load ptr, ptr %14, align 8
  %79 = call ptr @MemoryContextSwitchTo(ptr noundef %78)
  %80 = load ptr, ptr %15, align 8
  call void @llvm.lifetime.end.p0(i64 8, ptr %15) #9
  call void @llvm.lifetime.end.p0(i64 8, ptr %14) #9
  call void @llvm.lifetime.end.p0(i64 8, ptr %13) #9
  ret ptr %80
}