; Function Attrs: nounwind uwtable
define dso_local noundef ptr @AllocateSnapshotBuilder(ptr noundef %0, i32 noundef %1, i64 noundef %2, i1 noundef zeroext %3, i1 noundef zeroext %4, i64 noundef %5) local_unnamed_addr #0 {
  %7 = zext i1 %3 to i8
  %8 = zext i1 %4 to i8
  %9 = load ptr, ptr @CurrentMemoryContext, align 8
  %10 = tail call ptr @AllocSetContextCreateInternal(ptr noundef %9, ptr noundef nonnull @.str, i64 noundef 0, i64 noundef 8192, i64 noundef 8388608) #14
  %11 = load ptr, ptr @CurrentMemoryContext, align 8
  store ptr %10, ptr @CurrentMemoryContext, align 8
  %12 = tail call ptr @palloc0(i64 noundef 128) #14
  store i32 -1, ptr %12, align 8
  %13 = getelementptr inbounds nuw i8, ptr %12, i64 8
  store ptr %10, ptr %13, align 8
  %14 = getelementptr inbounds nuw i8, ptr %12, i64 64
  store ptr %0, ptr %14, align 8
  %15 = getelementptr inbounds nuw i8, ptr %12, i64 80
  store i64 0, ptr %15, align 8
  %16 = getelementptr inbounds nuw i8, ptr %12, i64 88
  store i64 128, ptr %16, align 8
  %17 = tail call ptr @palloc0(i64 noundef 512) #14
  %18 = getelementptr inbounds nuw i8, ptr %12, i64 104
  store ptr %17, ptr %18, align 8
  %19 = getelementptr inbounds nuw i8, ptr %12, i64 96
  store i8 1, ptr %19, align 8
  %20 = getelementptr inbounds nuw i8, ptr %12, i64 112
  %21 = getelementptr inbounds nuw i8, ptr %12, i64 40
  tail call void @llvm.memset.p0.i64(ptr noundef nonnull align 8 dereferenceable(16) %20, i8 0, i64 16, i1 false)
  store i32 %1, ptr %21, align 8
  %22 = getelementptr inbounds nuw i8, ptr %12, i64 24
  store i64 %2, ptr %22, align 8
  %23 = getelementptr inbounds nuw i8, ptr %12, i64 45
  store i8 %8, ptr %23, align 1
  %24 = getelementptr inbounds nuw i8, ptr %12, i64 44
  store i8 %7, ptr %24, align 4
  %25 = getelementptr inbounds nuw i8, ptr %12, i64 32
  store i64 %5, ptr %25, align 8
  store ptr %11, ptr @CurrentMemoryContext, align 8
  ret ptr %12
}